(lp0
(S'344'
p1
F0.49810464323865333
tp2
a(S'345'
p3
F0.27844235843291915
tp4
a(S'346'
p5
F0.33079698393877716
tp6
a(S'347'
p7
F0.06522926695054498
tp8
a(S'340'
p9
F0.13570253708545232
tp10
a(S'341'
p11
I0
tp12
a(S'342'
p13
F-0.02161489030321272
tp14
a(S'343'
p15
F0.25240646250303683
tp16
a(S'810'
p17
F0.9999999999999998
tp18
a(S'811'
p19
F0.9999999999999998
tp20
a(S'812'
p21
F1.9999999999999996
tp22
a(S'813'
p23
F0.6599663291074441
tp24
a(S'348'
p25
F0.3239096495252468
tp26
a(S'349'
p27
F0.3796697425821419
tp28
a(S'816'
p29
F0.0
tp30
a(S'817'
p31
F0.19518001458970666
tp32
a(S'737'
p33
F0.11377425704028625
tp34
a(S'719'
p35
F0.29131927528416524
tp36
a(S'718'
p37
F0.4738791022072739
tp38
a(S'717'
p39
F0.42301458670988645
tp40
a(S'716'
p41
F0.1204080094620119
tp42
a(S'715'
p43
F0.4030335074127371
tp44
a(S'714'
p45
F0.0431426154336716
tp46
a(S'713'
p47
F-0.37500000000000033
tp48
a(S'712'
p49
F-0.207015197723059
tp50
a(S'711'
p51
F0.2135121564538984
tp52
a(S'710'
p53
F0.1734868668713457
tp54
a(S'421'
p55
F0.21521999928873167
tp56
a(S'129'
p57
F0.10942844490912652
tp58
a(S'420'
p59
F-0.12476950008047476
tp60
a(S'423'
p61
F0.35136418446315326
tp62
a(S'422'
p63
F0.0
tp64
a(S'425'
p65
F0.3499539819168001
tp66
a(S'619'
p67
F0.35688786980353276
tp68
a(S'424'
p69
F0.06755249179242342
tp70
a(S'427'
p71
F-0.3233808333817773
tp72
a(S'298'
p73
F-0.04025642827354052
tp74
a(S'299'
p75
F0.37767666156872626
tp76
a(S'296'
p77
F0.388111240801639
tp78
a(S'297'
p79
F0.26760448076394405
tp80
a(S'294'
p81
F0.5461936044011614
tp82
a(S'295'
p83
F0.06397751116568369
tp84
a(S'292'
p85
F0.31046638061715515
tp86
a(S'293'
p87
F0.36243549703476335
tp88
a(S'290'
p89
F0.25587697606565407
tp90
a(S'291'
p91
F0.40949682552120836
tp92
a(S'591'
p93
F0.47653390786590355
tp94
a(S'590'
p95
F0.4970762293781464
tp96
a(S'593'
p97
F0.09979590223484437
tp98
a(S'592'
p99
F0.5163604496156168
tp100
a(S'595'
p101
F0.34820959681105196
tp102
a(S'594'
p103
F0.5759695969801146
tp104
a(S'597'
p105
F0.2981799629797088
tp106
a(S'596'
p107
F0.2802242691589027
tp108
a(S'195'
p109
F-0.06479261626851873
tp110
a(S'194'
p111
F0.27969495692426355
tp112
a(S'197'
p113
F0.5322999658337829
tp114
a(S'196'
p115
F-0.07630214429581651
tp116
a(S'191'
p117
F0.0
tp118
a(S'190'
p119
F-0.35903031263118496
tp120
a(S'193'
p121
F0.11696246760446315
tp122
a(S'192'
p123
F0.6665751456324135
tp124
a(S'270'
p125
F0.2063482093059845
tp126
a(S'271'
p127
F0.22543461797684833
tp128
a(S'272'
p129
F0.11330312319462969
tp130
a(S'273'
p131
F0.9999999999999998
tp132
a(S'274'
p133
F0.6653065170275658
tp134
a(S'275'
p135
F0.2993924754260479
tp136
a(S'276'
p137
F0.48516418102145153
tp138
a(S'277'
p139
F-0.06795579506639855
tp140
a(S'278'
p141
F0.5220133115091679
tp142
a(S'279'
p143
F0.18607670626053746
tp144
a(S'569'
p145
F0.2425634994208718
tp146
a(S'497'
p147
F0.25205076711816626
tp148
a(S'524'
p149
F0.03498600319403521
tp150
a(S'525'
p151
F0.41079191812887456
tp152
a(S'526'
p153
F0.6257001636295898
tp154
a(S'527'
p155
F0.09596396129311881
tp156
a(S'520'
p157
F1.0206207261596572
tp158
a(S'521'
p159
F0.19221965920961676
tp160
a(S'522'
p161
F0.08012385490013231
tp162
a(S'523'
p163
F0.06435856655959436
tp164
a(S'528'
p165
F0.2478342206957451
tp166
a(S'529'
p167
F0.44105427713597695
tp168
a(S'449'
p169
F0.6260603248646327
tp170
a(S'448'
p171
F0.19988898139583108
tp172
a(S'443'
p173
F0.37009074000180064
tp174
a(S'442'
p175
F0.29168108648873575
tp176
a(S'441'
p177
F0.2672612419124244
tp178
a(S'440'
p179
F0.6127215790391571
tp180
a(S'447'
p181
F0.27679515506156854
tp182
a(S'446'
p183
F-0.2222222222222222
tp184
a(S'445'
p185
F0.02410319959990624
tp186
a(S'444'
p187
F0.3273268353539886
tp188
a(S'108'
p189
F0.48365242060160707
tp190
a(S'109'
p191
F0.1713402462456101
tp192
a(S'102'
p193
F0.47528691884444996
tp194
a(S'103'
p195
F0.057974783692344496
tp196
a(S'100'
p197
F0.6468186120852509
tp198
a(S'101'
p199
F-0.24305555555555544
tp200
a(S'106'
p201
F-0.041284517894571715
tp202
a(S'107'
p203
F0.9756654533819867
tp204
a(S'104'
p205
F0.39689255659795636
tp206
a(S'105'
p207
F0.9082487681884431
tp208
a(S'902'
p209
F-0.07210557310390718
tp210
a(S'903'
p211
F0.2892717622547742
tp212
a(S'39'
p213
F1.0000000000000002
tp214
a(S'38'
p215
F-0.14768445807095304
tp216
a(S'906'
p217
F0.16857684544464185
tp218
a(S'907'
p219
F0.2304238915876839
tp220
a(S'904'
p221
F-0.5380388743699108
tp222
a(S'905'
p223
F0.7118183987463439
tp224
a(S'33'
p225
F0.3849001794597505
tp226
a(S'32'
p227
F0.6415007509420217
tp228
a(S'31'
p229
F0.0
tp230
a(S'30'
p231
F0.564522836536971
tp232
a(S'37'
p233
F0.16959913584087463
tp234
a(S'36'
p235
F-0.8504200642707617
tp236
a(S'35'
p237
F-0.5604485383178048
tp238
a(S'34'
p239
F0.9434563530497266
tp240
a(S'641'
p241
F-0.1322646843690138
tp242
a(S'640'
p243
F0.3679992391975559
tp244
a(S'643'
p245
F0.3844745402344852
tp246
a(S'642'
p247
F0.150204356908756
tp248
a(S'645'
p249
F0.19679622745990832
tp250
a(S'644'
p251
F0.25556221638599347
tp252
a(S'438'
p253
F0.17616816786155634
tp254
a(S'439'
p255
F0.08390607775994219
tp256
a(S'436'
p257
F0.11562856613812429
tp258
a(S'437'
p259
F0.19265974181691764
tp260
a(S'434'
p261
F-0.279944016794402
tp262
a(S'435'
p263
F0.34799840358021267
tp264
a(S'432'
p265
F-0.10031207821758029
tp266
a(S'433'
p267
F0.6264571115294432
tp268
a(S'430'
p269
F0.3393519676023435
tp270
a(S'431'
p271
F-0.6666666666666666
tp272
a(S'826'
p273
F0.40451991747794497
tp274
a(S'339'
p275
F0.28701173980638334
tp276
a(S'338'
p277
F0.20262049371091945
tp278
a(S'335'
p279
F-0.40996003084539395
tp280
a(S'334'
p281
F0.4355305705054787
tp282
a(S'337'
p283
F0.0
tp284
a(S'336'
p285
F-0.035289147828862374
tp286
a(S'331'
p287
F0.28557692307692323
tp288
a(S'330'
p289
F0.0940500396566301
tp290
a(S'333'
p291
F0.36943746678683526
tp292
a(S'332'
p293
F0.22714401067663856
tp294
a(S'559'
p295
F0.08544818471058085
tp296
a(S'745'
p297
F0.024661576216094393
tp298
a(S'854'
p299
F0.21085353377220745
tp300
a(S'818'
p301
F-0.3849001794597505
tp302
a(S'856'
p303
F-0.8660254037844388
tp304
a(S'857'
p305
F0.2421644421075823
tp306
a(S'850'
p307
F0.03332376954964203
tp308
a(S'851'
p309
F0.3747829900941404
tp310
a(S'852'
p311
F0.3823595564509361
tp312
a(S'819'
p313
F0.3572887190468934
tp314
a(S'858'
p315
I0
tp316
a(S'859'
p317
F0.37535527107887046
tp318
a(S'748'
p319
F0.2868849706697801
tp320
a(S'6'
p321
F0.28798623725769534
tp322
a(S'848'
p323
F0.27268972110810963
tp324
a(S'99'
p325
F0.22657475114458792
tp326
a(S'98'
p327
F-0.5608173758294747
tp328
a(S'91'
p329
F0.36917841785285355
tp330
a(S'90'
p331
F0.10175169318254719
tp332
a(S'93'
p333
F0.800000000000001
tp334
a(S'92'
p335
F0.3534704628806128
tp336
a(S'95'
p337
F0.2470662817144
tp338
a(S'94'
p339
F0.40859595533676746
tp340
a(S'97'
p341
F0.27270815442415064
tp342
a(S'96'
p343
F0.0
tp344
a(S'814'
p345
F0.2080125735844608
tp346
a(S'815'
p347
F0.35676489279683504
tp348
a(S'153'
p349
F-0.4269562819149822
tp350
a(S'740'
p351
F0.9284141650970551
tp352
a(S'741'
p353
F0.2778993222737395
tp354
a(S'742'
p355
F0.3395475713232084
tp356
a(S'743'
p357
F0.49567656456621906
tp358
a(S'744'
p359
F0.15752911628470634
tp360
a(S'558'
p361
F-0.22936585546278243
tp362
a(S'746'
p363
F0.3288535540412152
tp364
a(S'747'
p365
F0.174247467615449
tp366
a(S'555'
p367
F0.06828657670701772
tp368
a(S'554'
p369
F0.2572132211388776
tp370
a(S'557'
p371
F0.09798527018150095
tp372
a(S'556'
p373
F0.6161483198488377
tp374
a(S'551'
p375
F0.018287163363089737
tp376
a(S'550'
p377
F0.7623112420547188
tp378
a(S'553'
p379
F-0.06949411081614823
tp380
a(S'552'
p381
F0.34293570112325
tp382
a(S'238'
p383
F0.2696799449852966
tp384
a(S'239'
p385
F-0.04520859017702836
tp386
a(S'234'
p387
F0.21044027866401208
tp388
a(S'235'
p389
F-0.18375284741235137
tp390
a(S'236'
p391
F0.07721972883404549
tp392
a(S'237'
p393
F0.4371755026646094
tp394
a(S'230'
p395
F0.021689507798149387
tp396
a(S'231'
p397
F-0.15013847276131276
tp398
a(S'232'
p399
F0.495872943020393
tp400
a(S'233'
p401
F0.08045628666146239
tp402
a(S'1'
p403
F1.00071372735615
tp404
a(S'155'
p405
I0
tp406
a(S'146'
p407
F0.0
tp408
a(S'147'
p409
I0
tp410
a(S'618'
p411
F0.04049372405381981
tp412
a(S'145'
p413
F0.2608981556898232
tp414
a(S'142'
p415
F0.611359931759973
tp416
a(S'143'
p417
F-0.5669467095138421
tp418
a(S'140'
p419
F0.5000000000000009
tp420
a(S'141'
p421
F0.11457378964219923
tp422
a(S'612'
p423
F0.19983693433897126
tp424
a(S'613'
p425
F0.0
tp426
a(S'610'
p427
F-0.024549078845395
tp428
a(S'611'
p429
F0.0
tp430
a(S'616'
p431
F0.6681531047810614
tp432
a(S'617'
p433
F-0.04049412756248855
tp434
a(S'148'
p435
F0.21122136611902312
tp436
a(S'149'
p437
F0.679245283018868
tp438
a(S'154'
p439
F0.0999566397881808
tp440
a(S'942'
p441
F-0.1525362869368628
tp442
a(S'943'
p443
F0.07363268302162174
tp444
a(S'940'
p445
F0.27164742563064265
tp446
a(S'941'
p447
F0.29373674772302355
tp448
a(S'689'
p449
F0.24048096192384785
tp450
a(S'688'
p451
I0
tp452
a(S'685'
p453
I0
tp454
a(S'684'
p455
F0.11340670863477016
tp456
a(S'687'
p457
F1.005037815259212
tp458
a(S'686'
p459
F0.16722061957366852
tp460
a(S'681'
p461
F-0.7499999999999999
tp462
a(S'680'
p463
F0.13931607914866634
tp464
a(S'683'
p465
F0.44891397876495065
tp466
a(S'682'
p467
F0.37276158873732784
tp468
a(S'458'
p469
F0.26963846751660603
tp470
a(S'459'
p471
F-0.14091766840802464
tp472
a(S'133'
p473
F0.6536634440990085
tp474
a(S'132'
p475
F0.0
tp476
a(S'131'
p477
F0.07827216384455088
tp478
a(S'130'
p479
F0.21653792839380637
tp480
a(S'137'
p481
F0.2003089191763667
tp482
a(S'136'
p483
F0.26929968701907403
tp484
a(S'135'
p485
F0.5622951543905589
tp486
a(S'134'
p487
F0.8574929257125444
tp488
a(S'494'
p489
F0.08388458870227206
tp490
a(S'495'
p491
F0.2515013972122175
tp492
a(S'139'
p493
F0.6405126152203484
tp494
a(S'138'
p495
F0.13920485060019275
tp496
a(S'490'
p497
F0.5473769122838901
tp498
a(S'491'
p499
F0.2208005639940542
tp500
a(S'492'
p501
F0.22085012471586762
tp502
a(S'493'
p503
F0.21856759333077042
tp504
a(S'24'
p505
F-0.0726989884311484
tp506
a(S'25'
p507
F0.16966583219326412
tp508
a(S'26'
p509
F0.3361325837284712
tp510
a(S'27'
p511
F0.5908789478687522
tp512
a(S'20'
p513
F0.056423839685304074
tp514
a(S'21'
p515
F0.5357779750549102
tp516
a(S'22'
p517
F0.5966386360020925
tp518
a(S'23'
p519
F0.29463434090110047
tp520
a(S'28'
p521
F0.33793541338093264
tp522
a(S'29'
p523
F0.6559564653711034
tp524
a(S'407'
p525
F0.23387911087942437
tp526
a(S'406'
p527
F0.2777521188027587
tp528
a(S'405'
p529
F-0.0069266592747815586
tp530
a(S'404'
p531
F0.21320071635561041
tp532
a(S'403'
p533
F-0.03977762625380052
tp534
a(S'402'
p535
F0.39785804288013055
tp536
a(S'401'
p537
F0.0662391393187744
tp538
a(S'400'
p539
F0.8660254037844387
tp540
a(S'933'
p541
F0.3983558475746674
tp542
a(S'932'
p543
F0.3168021115094143
tp544
a(S'931'
p545
F-0.09746274999320673
tp546
a(S'930'
p547
F0.08568829784491876
tp548
a(S'937'
p549
F0.039356795474715885
tp550
a(S'452'
p551
F0.22147071865342186
tp552
a(S'409'
p553
F0.33409102196130724
tp554
a(S'408'
p555
F0.42257712736425845
tp556
a(S'453'
p557
F0.4200980569219622
tp558
a(S'414'
p559
F0.8016376680394148
tp560
a(S'183'
p561
F0.3600675189903096
tp562
a(S'415'
p563
F0.5926974966883575
tp564
a(S'379'
p565
F0.2700879931757174
tp566
a(S'378'
p567
F0.3333155739956859
tp568
a(S'228'
p569
F-0.8075728530872488
tp570
a(S'829'
p571
F0.42766252058706394
tp572
a(S'828'
p573
F0.268659634134017
tp574
a(S'371'
p575
F-0.21742346044656677
tp576
a(S'370'
p577
F0.2118774053297246
tp578
a(S'373'
p579
F0.19309712502371915
tp580
a(S'372'
p581
F-0.2272411786214004
tp582
a(S'375'
p583
F0.1368451378759933
tp584
a(S'820'
p585
F0.49999999999999956
tp586
a(S'377'
p587
F0.2093934737651736
tp588
a(S'376'
p589
F0.20739033894608505
tp590
a(S'708'
p591
F0.3084181847275748
tp592
a(S'709'
p593
F0.2206824822843229
tp594
a(S'704'
p595
F-0.10066078927923143
tp596
a(S'705'
p597
F0.04914140441090438
tp598
a(S'706'
p599
F-0.05926678258031438
tp600
a(S'707'
p601
F0.2042799612424574
tp602
a(S'700'
p603
F0.5517154666897583
tp604
a(S'144'
p605
F0.20766664159692574
tp606
a(S'702'
p607
F0.8230051832804358
tp608
a(S'703'
p609
F0.248513053180287
tp610
a(S'393'
p611
F0.013997293202166841
tp612
a(S'392'
p613
F0.4215666825111418
tp614
a(S'88'
p615
I0
tp616
a(S'89'
p617
F0.0
tp618
a(S'397'
p619
F0.5600341536252058
tp620
a(S'396'
p621
F0.06723816849400537
tp622
a(S'395'
p623
F0.4332407504847102
tp624
a(S'394'
p625
F0.3205824138320458
tp626
a(S'82'
p627
F0.33133392937598627
tp628
a(S'83'
p629
F0.3430141296908056
tp630
a(S'80'
p631
F0.3883215816738117
tp632
a(S'81'
p633
F-0.057918525539324285
tp634
a(S'86'
p635
F0.5103103630798282
tp636
a(S'87'
p637
F0.3019590516437936
tp638
a(S'84'
p639
F0.10610696140540093
tp640
a(S'85'
p641
F0.16455925835304797
tp642
a(S'797'
p643
F0.7258661863112974
tp644
a(S'796'
p645
F0.1453495587275669
tp646
a(S'795'
p647
F0.2593083254003184
tp648
a(S'794'
p649
F0.24084099726772487
tp650
a(S'793'
p651
F0.27076518053694093
tp652
a(S'792'
p653
F0.48714050320971686
tp654
a(S'791'
p655
F0.9344877349289689
tp656
a(S'790'
p657
F0.2792302619001284
tp658
a(S'799'
p659
I0
tp660
a(S'798'
p661
F-0.1222307034382129
tp662
a(S'7'
p663
F0.2589915642482523
tp664
a(S'170'
p665
F-0.20801257358446099
tp666
a(S'586'
p667
F-0.04860632659216686
tp668
a(S'587'
p669
F0.35339204594775453
tp670
a(S'584'
p671
F-0.11322770341445959
tp672
a(S'585'
p673
F0.045271166707378956
tp674
a(S'582'
p675
F0.47214281519093915
tp676
a(S'583'
p677
F0.24656448378672147
tp678
a(S'580'
p679
F-0.09816943395088801
tp680
a(S'581'
p681
F0.22360679774997771
tp682
a(S'588'
p683
F0.04291366726552104
tp684
a(S'589'
p685
F-0.6123330636935873
tp686
a(S'245'
p687
F0.3175426480542943
tp688
a(S'244'
p689
F0.3456454439554646
tp690
a(S'247'
p691
F0.5220550248891755
tp692
a(S'246'
p693
F0.4829926091796787
tp694
a(S'241'
p695
I0
tp696
a(S'614'
p697
F0.1911808477596972
tp698
a(S'243'
p699
F0.1223009834681715
tp700
a(S'242'
p701
F0.4444444444444444
tp702
a(S'615'
p703
F0.3985975593683764
tp704
a(S'249'
p705
F0.2574573431632882
tp706
a(S'248'
p707
F0.26730882450028526
tp708
a(S'418'
p709
I0
tp710
a(S'419'
p711
F0.3786328457205044
tp712
a(S'519'
p713
F0.42810364080760543
tp714
a(S'518'
p715
F0.03450327796711771
tp716
a(S'511'
p717
F1.9999999999999996
tp718
a(S'510'
p719
F0.8625819491779433
tp720
a(S'513'
p721
F-0.13826657968874312
tp722
a(S'512'
p723
F-0.27937211830783126
tp724
a(S'515'
p725
F0.0
tp726
a(S'514'
p727
F0.2674316738363683
tp728
a(S'517'
p729
F0.6214710860229782
tp730
a(S'516'
p731
F0.6324555320336759
tp732
a(S'623'
p733
F0.06624614591134302
tp734
a(S'622'
p735
F0.3160746583045562
tp736
a(S'621'
p737
F0.3448230245652231
tp738
a(S'620'
p739
F0.047084176088362045
tp740
a(S'627'
p741
F0.21532916671352986
tp742
a(S'626'
p743
F0.6763229453961239
tp744
a(S'625'
p745
F0.1626310494786316
tp746
a(S'624'
p747
F0.48791779377260575
tp748
a(S'450'
p749
F0.24056014085586583
tp750
a(S'451'
p751
F-0.19615890949258002
tp752
a(S'629'
p753
F0.17038541145725272
tp754
a(S'628'
p755
F0.7745966692414835
tp756
a(S'454'
p757
F-0.03921845857329658
tp758
a(S'455'
p759
F0.25211677867980603
tp760
a(S'456'
p761
F0.18856904215546783
tp762
a(S'457'
p763
F0.42489457036914796
tp764
a(S'179'
p765
F0.5802588531856595
tp766
a(S'178'
p767
F0.2365261341920455
tp768
a(S'177'
p769
F0.34639273058733366
tp770
a(S'199'
p771
F0.6093946721570719
tp772
a(S'175'
p773
F-0.09749579859334123
tp774
a(S'174'
p775
F0.32960763057955306
tp776
a(S'173'
p777
F0.5788596842339372
tp778
a(S'172'
p779
F0.3175536744149781
tp780
a(S'171'
p781
F0.22360679774997896
tp782
a(S'198'
p783
F0.2554268857454985
tp784
a(S'182'
p785
F0.06328834427893752
tp786
a(S'657'
p787
F0.2678571428571428
tp788
a(S'180'
p789
F0.12367727631309941
tp790
a(S'656'
p791
F0.8888888888888888
tp792
a(S'599'
p793
F0.5519388914822525
tp794
a(S'654'
p795
F-0.021464990527224805
tp796
a(S'181'
p797
F0.15877135270406625
tp798
a(S'186'
p799
F-0.057948480712960763
tp800
a(S'187'
p801
F-0.037708542607823754
tp802
a(S'184'
p803
F0.4153693408802012
tp804
a(S'185'
p805
F0.3020204860533307
tp806
a(S'652'
p807
F0.2886751345948129
tp808
a(S'188'
p809
F0.07145228450028096
tp810
a(S'189'
p811
F0.227994296919579
tp812
a(S'658'
p813
F0.0
tp814
a(S'653'
p815
F0.3514105486213651
tp816
a(S'650'
p817
F0.3912360298447273
tp818
a(S'651'
p819
F0.7372097807744852
tp820
a(S'11'
p821
F0.313604355014885
tp822
a(S'10'
p823
F-0.08080096626740563
tp824
a(S'13'
p825
F0.4308145367819956
tp826
a(S'12'
p827
F0.07550020902189963
tp828
a(S'15'
p829
F0.15920614950598744
tp830
a(S'14'
p831
F0.05205895394918522
tp832
a(S'17'
p833
F0.6082070358744851
tp834
a(S'16'
p835
F0.14561828868943133
tp836
a(S'19'
p837
F-0.5412658773652741
tp838
a(S'18'
p839
F-0.029711811061383483
tp840
a(S'863'
p841
F0.5567942539842172
tp842
a(S'862'
p843
F0.22290983129855926
tp844
a(S'865'
p845
F0.24002980395080262
tp846
a(S'864'
p847
F0.29452043539429795
tp848
a(S'867'
p849
F0.401592936221599
tp850
a(S'866'
p851
F1.4999999999999991
tp852
a(S'354'
p853
F0.13728556205759035
tp854
a(S'659'
p855
F0.1694487632300178
tp856
a(S'883'
p857
F0.31956767221052157
tp858
a(S'882'
p859
F0.3258962898791573
tp860
a(S'881'
p861
F0.2569476406500636
tp862
a(S'880'
p863
F0.4698473497759728
tp864
a(S'887'
p865
F0.03978440129512715
tp866
a(S'886'
p867
F0.4441015204978168
tp868
a(S'885'
p869
F0.22575667289042645
tp870
a(S'884'
p871
F0.08029952851256097
tp872
a(S'889'
p873
F0.34013614738755615
tp874
a(S'888'
p875
F0.0
tp876
a(S'116'
p877
F0.2069661591842658
tp878
a(S'426'
p879
F0.16069670046891396
tp880
a(S'355'
p881
F0.3849001794597505
tp882
a(S'322'
p883
F-0.1295668351347649
tp884
a(S'323'
p885
F0.3470256988176181
tp886
a(S'320'
p887
F0.34512658363332815
tp888
a(S'321'
p889
F-0.07670241555270402
tp890
a(S'326'
p891
F0.06012398324001715
tp892
a(S'327'
p893
F0.14614994568434053
tp894
a(S'324'
p895
F-0.17817416127494956
tp896
a(S'325'
p897
F0.2502388774418826
tp898
a(S'328'
p899
F0.3333903843472417
tp900
a(S'329'
p901
F0.4618641953660771
tp902
a(S'562'
p903
F0.015811694901776585
tp904
a(S'201'
p905
F0.20042261153420293
tp906
a(S'200'
p907
F0.28044044181353195
tp908
a(S'203'
p909
F0.20601048104984185
tp910
a(S'202'
p911
F0.6633249580710809
tp912
a(S'205'
p913
F0.6681531047810614
tp914
a(S'204'
p915
F0.43834042438510185
tp916
a(S'207'
p917
F0.05653220242541974
tp918
a(S'206'
p919
F0.40451991747794536
tp920
a(S'209'
p921
F0.35582999744274413
tp922
a(S'208'
p923
F0.0
tp924
a(S'779'
p925
F0.096050358841361
tp926
a(S'778'
p927
F0.45802349002574466
tp928
a(S'77'
p929
F0.3469789152540654
tp930
a(S'76'
p931
F0.1725794325527797
tp932
a(S'75'
p933
F0.5079945578100393
tp934
a(S'74'
p935
F0.0
tp936
a(S'73'
p937
F0.28589472330401094
tp938
a(S'72'
p939
F0.14104755774599362
tp940
a(S'71'
p941
F0.0
tp942
a(S'70'
p943
F0.2709601628621857
tp944
a(S'655'
p945
F0.1874022217513416
tp946
a(S'567'
p947
F0.03498767168175507
tp948
a(S'79'
p949
F-0.2853175519625623
tp950
a(S'78'
p951
F-0.5833833511969486
tp952
a(S'359'
p953
F0.42640143271122094
tp954
a(S'358'
p955
F-0.44594989317274497
tp956
a(S'669'
p957
F0.27709372738936033
tp958
a(S'668'
p959
F0.3754210182461032
tp960
a(S'667'
p961
F0.0
tp962
a(S'666'
p963
F0.09051392360955204
tp964
a(S'665'
p965
F0.10209365246580099
tp966
a(S'664'
p967
F0.41755747334041987
tp968
a(S'663'
p969
F0.18051855813383044
tp970
a(S'662'
p971
F0.2672612419124244
tp972
a(S'661'
p973
F0.4508957542172747
tp974
a(S'660'
p975
F0.39320446113217056
tp976
a(S'215'
p977
F0.41051768396779614
tp978
a(S'692'
p979
F0.14261973987987742
tp980
a(S'693'
p981
F-0.017068410739178096
tp982
a(S'690'
p983
F0.18671730996797722
tp984
a(S'691'
p985
F0.864749191765239
tp986
a(S'696'
p987
F0.7001400420140043
tp988
a(S'697'
p989
F0.6623821768876766
tp990
a(S'694'
p991
F0.23196423890487206
tp992
a(S'695'
p993
F0.6243905410544627
tp994
a(S'698'
p995
F0.03575340074417473
tp996
a(S'699'
p997
F0.19143859319427212
tp998
a(S'542'
p999
F0.15211252857444918
tp1000
a(S'543'
p1001
F0.3775774969976651
tp1002
a(S'540'
p1003
F0.5279824497240532
tp1004
a(S'541'
p1005
F0.11068533034031575
tp1006
a(S'546'
p1007
F-0.14316400318996456
tp1008
a(S'547'
p1009
I0
tp1010
a(S'544'
p1011
F0.8084520834544433
tp1012
a(S'545'
p1013
F0.38671885454122706
tp1014
a(S'8'
p1015
F0.7049557406531779
tp1016
a(S'548'
p1017
F0.05240386730663078
tp1018
a(S'549'
p1019
F0.7170496190989856
tp1020
a(S'598'
p1021
F0.72
tp1022
a(S'869'
p1023
F0.1608625033308526
tp1024
a(S'868'
p1025
F0.5158447947697354
tp1026
a(S'120'
p1027
F0.5978437111543795
tp1028
a(S'121'
p1029
F0.4757404046985652
tp1030
a(S'122'
p1031
F0.38749111997336844
tp1032
a(S'123'
p1033
F0.2747139884821584
tp1034
a(S'124'
p1035
F-0.06474424740545882
tp1036
a(S'125'
p1037
F0.20553654262386004
tp1038
a(S'126'
p1039
F0.07973099557526507
tp1040
a(S'127'
p1041
F-0.37229359388232725
tp1042
a(S'128'
p1043
F0.05287326356723354
tp1044
a(S'2'
p1045
F0.19739605850309047
tp1046
a(S'219'
p1047
F0.14194696358306827
tp1048
a(S'176'
p1049
F0.20314014375667025
tp1050
a(S'214'
p1051
F-0.05332585335183729
tp1052
a(S'563'
p1053
F0.4868630235653262
tp1054
a(S'928'
p1055
F-0.08259308406823951
tp1056
a(S'929'
p1057
F0.3435018449738787
tp1058
a(S'416'
p1059
F0.3022038612946987
tp1060
a(S'417'
p1061
F0.16106428496263542
tp1062
a(S'410'
p1063
F0.0
tp1064
a(S'411'
p1065
F0.3080326669202016
tp1066
a(S'412'
p1067
F0.24112141108520602
tp1068
a(S'413'
p1069
F0.7352922760010769
tp1070
a(S'920'
p1071
F0.7499999999999998
tp1072
a(S'498'
p1073
F0.11655449983495729
tp1074
a(S'922'
p1075
F0.29680797592528557
tp1076
a(S'923'
p1077
F0.606966418229511
tp1078
a(S'924'
p1079
F0.27875260117384365
tp1080
a(S'925'
p1081
F0.37221875023909917
tp1082
a(S'926'
p1083
F0.7444375004781982
tp1084
a(S'927'
p1085
F0.1386715221290169
tp1086
a(S'319'
p1087
F0.7290148043997559
tp1088
a(S'318'
p1089
F0.08551749617735205
tp1090
a(S'313'
p1091
F0.2600614170094532
tp1092
a(S'312'
p1093
F0.0
tp1094
a(S'311'
p1095
F0.24782032162081613
tp1096
a(S'310'
p1097
F0.0
tp1098
a(S'317'
p1099
F-0.6019292654288454
tp1100
a(S'316'
p1101
F-0.14165764939496572
tp1102
a(S'315'
p1103
F0.4807039728789693
tp1104
a(S'314'
p1105
F-0.04630532271214176
tp1106
a(S'921'
p1107
F0.19241580014496704
tp1108
a(S'496'
p1109
F0.3805298870818194
tp1110
a(S'832'
p1111
F0.34143167982105593
tp1112
a(S'833'
p1113
F0.11865477306618126
tp1114
a(S'830'
p1115
F0.2755792174132852
tp1116
a(S'831'
p1117
F0.3461643933654103
tp1118
a(S'836'
p1119
F0.36073955268291164
tp1120
a(S'837'
p1121
F0.0
tp1122
a(S'834'
p1123
F0.048950649987362836
tp1124
a(S'835'
p1125
F-0.0290371169897027
tp1126
a(S'838'
p1127
F0.06599011569027624
tp1128
a(S'839'
p1129
F0.5167983264667598
tp1130
a(S'3'
p1131
F0.16404433384556402
tp1132
a(S'368'
p1133
F0.4267579839709912
tp1134
a(S'369'
p1135
F0.4973242051000777
tp1136
a(S'366'
p1137
F-0.35140845639484336
tp1138
a(S'367'
p1139
F0.4019613543990098
tp1140
a(S'364'
p1141
F0.8528028654224417
tp1142
a(S'365'
p1143
F0.050151479259598106
tp1144
a(S'362'
p1145
F0.25660011963983365
tp1146
a(S'363'
p1147
F0.4172722374611087
tp1148
a(S'360'
p1149
F0.19293554826048281
tp1150
a(S'361'
p1151
F0.33395232130575675
tp1152
a(S'218'
p1153
F0.3296984113671259
tp1154
a(S'380'
p1155
F0.3691802674375015
tp1156
a(S'861'
p1157
F0.4389370156860407
tp1158
a(S'382'
p1159
F0.04270912170921044
tp1160
a(S'383'
p1161
F-0.05447587376115727
tp1162
a(S'384'
p1163
F0.0
tp1164
a(S'385'
p1165
F0.08412740036838853
tp1166
a(S'386'
p1167
F0.0
tp1168
a(S'387'
p1169
F0.2914938979912297
tp1170
a(S'388'
p1171
F-0.276458089973226
tp1172
a(S'389'
p1173
F0.36518578212145847
tp1174
a(S'784'
p1175
F0.21737453291558775
tp1176
a(S'785'
p1177
F0.28276731790777854
tp1178
a(S'786'
p1179
F0.14120304938873746
tp1180
a(S'787'
p1181
F0.4717281765248633
tp1182
a(S'780'
p1183
F0.1663155124688577
tp1184
a(S'781'
p1185
F0.2747510976874766
tp1186
a(S'782'
p1187
F0.4079137540518048
tp1188
a(S'381'
p1189
F0.5876873419985471
tp1190
a(S'788'
p1191
F0.2730762355275853
tp1192
a(S'789'
p1193
F0.6131393394849689
tp1194
a(S'860'
p1195
F0.23008114237079402
tp1196
a(S'151'
p1197
F0.265819679126469
tp1198
a(S'579'
p1199
F0.4549078015356606
tp1200
a(S'578'
p1201
F-0.4552327340001629
tp1202
a(S'150'
p1203
F0.19889019279008732
tp1204
a(S'573'
p1205
F0.27327102069851045
tp1206
a(S'572'
p1207
F1.0737509843863238
tp1208
a(S'571'
p1209
F0.765964381782249
tp1210
a(S'570'
p1211
F0.49801192055599736
tp1212
a(S'577'
p1213
F0.2950075442008787
tp1214
a(S'576'
p1215
F0.2976071853241539
tp1216
a(S'575'
p1217
F-0.09071632003496193
tp1218
a(S'574'
p1219
F0.11918282365569896
tp1220
a(S'60'
p1221
F0.504255665021963
tp1222
a(S'61'
p1223
F0.8767140075192092
tp1224
a(S'62'
p1225
F0.342945827424811
tp1226
a(S'259'
p1227
F0.05629945263866411
tp1228
a(S'64'
p1229
F0.2952458683419712
tp1230
a(S'65'
p1231
F0.35062206829560894
tp1232
a(S'66'
p1233
F0.6267831705280087
tp1234
a(S'67'
p1235
F-0.10502100630210068
tp1236
a(S'68'
p1237
F0.3589212680387771
tp1238
a(S'69'
p1239
F0.5410189628238958
tp1240
a(S'250'
p1241
F0.19928110596342197
tp1242
a(S'251'
p1243
F0.32641987856475013
tp1244
a(S'256'
p1245
F0.1952409078450571
tp1246
a(S'257'
p1247
F0.4769688426530629
tp1248
a(S'254'
p1249
F0.33409137054289556
tp1250
a(S'255'
p1251
F0.2251433387976629
tp1252
a(S'499'
p1253
F0.10996641893937599
tp1254
a(S'157'
p1255
F0.4067763758188837
tp1256
a(S'156'
p1257
F0.35809908129027135
tp1258
a(S'939'
p1259
F0.5658251521157386
tp1260
a(S'731'
p1261
F0.046317697773490894
tp1262
a(S'730'
p1263
F0.4039328055321348
tp1264
a(S'733'
p1265
F0.37917234152431745
tp1266
a(S'938'
p1267
F0.33434225739152446
tp1268
a(S'735'
p1269
F0.38873750238024657
tp1270
a(S'734'
p1271
F-0.21564475821024087
tp1272
a(S'508'
p1273
F0.32860160905797386
tp1274
a(S'736'
p1275
F0.7660323462854266
tp1276
a(S'506'
p1277
F0.18571775374145527
tp1278
a(S'738'
p1279
F0.37800596734793795
tp1280
a(S'504'
p1281
F0.293293888491679
tp1282
a(S'505'
p1283
F-0.1273376251583291
tp1284
a(S'502'
p1285
F-0.13219579477176951
tp1286
a(S'503'
p1287
F0.21912869705110244
tp1288
a(S'500'
p1289
F0.3104309510504764
tp1290
a(S'501'
p1291
F0.4622809695851911
tp1292
a(S'630'
p1293
F0.04931585885956133
tp1294
a(S'631'
p1295
I0
tp1296
a(S'632'
p1297
F0.0747017880833996
tp1298
a(S'633'
p1299
F0.1784606837671475
tp1300
a(S'469'
p1301
F0.0
tp1302
a(S'468'
p1303
F0.30665753908034193
tp1304
a(S'636'
p1305
F-0.3870693672140187
tp1306
a(S'637'
p1307
F0.15317192684221956
tp1308
a(S'465'
p1309
F0.031958847226470674
tp1310
a(S'464'
p1311
F0.4324674558794418
tp1312
a(S'467'
p1313
F0.5649883385169104
tp1314
a(S'466'
p1315
F0.17470785400832559
tp1316
a(S'461'
p1317
F0.6945692698271609
tp1318
a(S'900'
p1319
F0.32619796904963494
tp1320
a(S'463'
p1321
F0.38612532736612726
tp1322
a(S'462'
p1323
F0.43073049225394816
tp1324
a(S'901'
p1325
F0.19011736355370198
tp1326
a(S'168'
p1327
F0.19550680561530367
tp1328
a(S'169'
p1329
F0.5661432891156157
tp1330
a(S'164'
p1331
F0.293887343348258
tp1332
a(S'165'
p1333
F0.6265219161172353
tp1334
a(S'166'
p1335
F0.9999999999999998
tp1336
a(S'167'
p1337
F-0.02479680959365783
tp1338
a(S'160'
p1339
F0.22524257690482546
tp1340
a(S'161'
p1341
F0.030660993104277376
tp1342
a(S'162'
p1343
F0.2423278348537339
tp1344
a(S'163'
p1345
F-0.24354409352352646
tp1346
a(S'783'
p1347
F-0.29880715233359895
tp1348
a(S'936'
p1349
F0.3837333825724883
tp1350
a(S'935'
p1351
F-0.2409645549859335
tp1352
a(S'934'
p1353
F0.06561489079842257
tp1354
a(S'908'
p1355
F0.2976267094584644
tp1356
a(S'909'
p1357
F0.0
tp1358
a(S'722'
p1359
F0.0
tp1360
a(S'878'
p1361
F0.2737294972504679
tp1362
a(S'879'
p1363
F0.1215062941890627
tp1364
a(S'876'
p1365
F0.6390096504226951
tp1366
a(S'877'
p1367
F0.25544885079862806
tp1368
a(S'874'
p1369
F0.5806040508210295
tp1370
a(S'875'
p1371
F0.27836607675276864
tp1372
a(S'872'
p1373
F-0.37293492699144576
tp1374
a(S'873'
p1375
F0.8660254037844387
tp1376
a(S'870'
p1377
F0.33439844962023424
tp1378
a(S'871'
p1379
F0.349273662752389
tp1380
a(S'9'
p1381
F0.0
tp1382
a(S'890'
p1383
F0.4320260054234164
tp1384
a(S'891'
p1385
F-0.2838664779018295
tp1386
a(S'892'
p1387
F0.378231799701806
tp1388
a(S'893'
p1389
F0.4411942955400856
tp1390
a(S'894'
p1391
F0.30085041843848087
tp1392
a(S'647'
p1393
F0.27557251704484953
tp1394
a(S'896'
p1395
F0.3125466289977909
tp1396
a(S'897'
p1397
F0.09471363225179574
tp1398
a(S'898'
p1399
F0.7773343059015164
tp1400
a(S'899'
p1401
F0.34436731741499804
tp1402
a(S'646'
p1403
F0.0
tp1404
a(S'649'
p1405
F0.14857385428681055
tp1406
a(S'648'
p1407
F0.38718904247805824
tp1408
a(S'357'
p1409
F-0.0734652811919889
tp1410
a(S'356'
p1411
I0
tp1412
a(S'809'
p1413
F0.0
tp1414
a(S'808'
p1415
F0.22917462425705296
tp1416
a(S'353'
p1417
F0.4163589018533025
tp1418
a(S'352'
p1419
F0.11366702684670504
tp1420
a(S'351'
p1421
F1.0
tp1422
a(S'350'
p1423
F0.26076930221992345
tp1424
a(S'803'
p1425
F0.8767137455094083
tp1426
a(S'802'
p1427
F0.4092017841972765
tp1428
a(S'801'
p1429
F0.6666666666666666
tp1430
a(S'800'
p1431
F0.6842105263157885
tp1432
a(S'807'
p1433
F0.03864679489417522
tp1434
a(S'806'
p1435
F0.35005579190406105
tp1436
a(S'805'
p1437
F0.3840600697722853
tp1438
a(S'804'
p1439
F0.3393599213546309
tp1440
a(S'216'
p1441
F0.1975119971317921
tp1442
a(S'217'
p1443
F0.0
tp1444
a(S'768'
p1445
F0.17417762518597904
tp1446
a(S'769'
p1447
F0.6692235592194651
tp1448
a(S'212'
p1449
F0.6711902969964104
tp1450
a(S'213'
p1451
F0.14425815037289702
tp1452
a(S'210'
p1453
F0.4118683514738986
tp1454
a(S'211'
p1455
F-0.23012454265292576
tp1456
a(S'762'
p1457
F0.27508032145767913
tp1458
a(S'763'
p1459
F0.15023654203098433
tp1460
a(S'760'
p1461
F0.3415198539354744
tp1462
a(S'761'
p1463
F0.10465038456601541
tp1464
a(S'766'
p1465
F0.08007891262844768
tp1466
a(S'767'
p1467
F0.13691479367359694
tp1468
a(S'764'
p1469
F0.07362813417466042
tp1470
a(S'765'
p1471
F0.37892851779062764
tp1472
a(S'289'
p1473
F0.5466096274867318
tp1474
a(S'288'
p1475
F-0.1207851444765502
tp1476
a(S'4'
p1477
F0.5
tp1478
a(S'281'
p1479
F-0.4717281765248633
tp1480
a(S'280'
p1481
F0.008538112601499904
tp1482
a(S'283'
p1483
F0.5729640836833196
tp1484
a(S'282'
p1485
F0.7499999999999998
tp1486
a(S'285'
p1487
F-0.09148780539329375
tp1488
a(S'284'
p1489
F0.49537120243826044
tp1490
a(S'287'
p1491
F0.15859975591329772
tp1492
a(S'286'
p1493
F0.024616458063519506
tp1494
a(S'678'
p1495
F0.3385555833846724
tp1496
a(S'679'
p1497
F0.46223258164864583
tp1498
a(S'674'
p1499
F0.2978663029179193
tp1500
a(S'675'
p1501
F0.0
tp1502
a(S'676'
p1503
F0.026479861246361366
tp1504
a(S'677'
p1505
F-0.058779917026944496
tp1506
a(S'670'
p1507
F0.1091485458252738
tp1508
a(S'671'
p1509
F0.2705470388633316
tp1510
a(S'672'
p1511
F0.6363961030678926
tp1512
a(S'673'
p1513
F-0.5604485383178044
tp1514
a(S'263'
p1515
F0.32817185719450515
tp1516
a(S'262'
p1517
F-0.03381376367753182
tp1518
a(S'261'
p1519
F0.0
tp1520
a(S'260'
p1521
F0.7500000000000007
tp1522
a(S'267'
p1523
F0.4570679077790908
tp1524
a(S'266'
p1525
F0.7523255869767261
tp1526
a(S'265'
p1527
F-0.3045999689347195
tp1528
a(S'264'
p1529
F0.16957938040093873
tp1530
a(S'269'
p1531
F0.3107329907415105
tp1532
a(S'268'
p1533
F0.39007331593531086
tp1534
a(S'59'
p1535
F0.36694553602855823
tp1536
a(S'58'
p1537
F0.2124508047018126
tp1538
a(S'55'
p1539
F0.5038643656288277
tp1540
a(S'54'
p1541
F0.3391355635255638
tp1542
a(S'57'
p1543
F0.5837402876286425
tp1544
a(S'56'
p1545
F0.19556316093747736
tp1546
a(S'51'
p1547
F0.42047334941230746
tp1548
a(S'258'
p1549
F-0.32732683535398865
tp1550
a(S'53'
p1551
F0.39791121287711045
tp1552
a(S'52'
p1553
F0.0
tp1554
a(S'537'
p1555
F0.2108093597087957
tp1556
a(S'536'
p1557
F0.10554861143242253
tp1558
a(S'535'
p1559
F0.0710040484308155
tp1560
a(S'63'
p1561
F0.08313825414678887
tp1562
a(S'533'
p1563
F0.3080257454755824
tp1564
a(S'532'
p1565
F0.3420627378511418
tp1566
a(S'531'
p1567
F1.3333333333333333
tp1568
a(S'530'
p1569
F0.11195900562931149
tp1570
a(S'152'
p1571
F0.15665726600796076
tp1572
a(S'539'
p1573
F0.12358702251807638
tp1574
a(S'538'
p1575
F0.06119229921515498
tp1576
a(S'775'
p1577
F-0.15877683720748897
tp1578
a(S'774'
p1579
F0.21444547595517888
tp1580
a(S'777'
p1581
F-0.03689696652319619
tp1582
a(S'50'
p1583
F0.1336306209562122
tp1584
a(S'115'
p1585
F0.3395851138230463
tp1586
a(S'252'
p1587
F0.0
tp1588
a(S'117'
p1589
F0.5081606438629175
tp1590
a(S'776'
p1591
F0.45394693195137203
tp1592
a(S'111'
p1593
F0.8164965809277259
tp1594
a(S'110'
p1595
F0.0
tp1596
a(S'113'
p1597
F0.08700501350624965
tp1598
a(S'253'
p1599
F0.3849912046896998
tp1600
a(S'771'
p1601
F0.05909155259070343
tp1602
a(S'119'
p1603
F0.20459814393092116
tp1604
a(S'118'
p1605
F0.3795077432525013
tp1606
a(S'770'
p1607
F0.39524148034799084
tp1608
a(S'773'
p1609
F0.5058579264663091
tp1610
a(S'772'
p1611
F0.7446859234057094
tp1612
a(S'429'
p1613
F0.4050899891414358
tp1614
a(S'428'
p1615
F0.2439346884545225
tp1616
a(S'534'
p1617
F0.0
tp1618
a(S'919'
p1619
F0.17834131080298768
tp1620
a(S'918'
p1621
F0.07483867291225348
tp1622
a(S'915'
p1623
I0
tp1624
a(S'914'
p1625
F-0.6063390625908326
tp1626
a(S'917'
p1627
F0.11475254728868144
tp1628
a(S'916'
p1629
F0.42175032462268164
tp1630
a(S'911'
p1631
F0.15768112195174477
tp1632
a(S'910'
p1633
F0.40517374846204546
tp1634
a(S'913'
p1635
F0.21613505327246216
tp1636
a(S'912'
p1637
F-0.2369004912373681
tp1638
a(S'308'
p1639
F0.2142379373909925
tp1640
a(S'309'
p1641
I0
tp1642
a(S'855'
p1643
F0.23809523809523814
tp1644
a(S'300'
p1645
F0.11236664374387367
tp1646
a(S'301'
p1647
F0.2813496413124777
tp1648
a(S'302'
p1649
F0.0
tp1650
a(S'303'
p1651
F0.45120211245720143
tp1652
a(S'304'
p1653
F0.20515248496555458
tp1654
a(S'305'
p1655
F0.3510403931476403
tp1656
a(S'306'
p1657
F0.0
tp1658
a(S'307'
p1659
F0.2414045611783436
tp1660
a(S'895'
p1661
F0.6396021490668313
tp1662
a(S'825'
p1663
F0.0
tp1664
a(S'824'
p1665
F0.5869672708837492
tp1666
a(S'827'
p1667
F0.42257712736425845
tp1668
a(S'847'
p1669
F0.3050919904546267
tp1670
a(S'846'
p1671
F0.25989721973276625
tp1672
a(S'845'
p1673
F0.5773502691896258
tp1674
a(S'844'
p1675
F0.2742855935464163
tp1676
a(S'843'
p1677
F0.21318433088926322
tp1678
a(S'842'
p1679
F0.3124999999999997
tp1680
a(S'841'
p1681
F0.8888888888888888
tp1682
a(S'840'
p1683
F0.10253436760320823
tp1684
a(S'821'
p1685
F0.0
tp1686
a(S'853'
p1687
F0.769897353862103
tp1688
a(S'849'
p1689
I0
tp1690
a(S'374'
p1691
F0.11622961512729743
tp1692
a(S'823'
p1693
F0.29683946086312435
tp1694
a(S'822'
p1695
F0.39056673294247196
tp1696
a(S'240'
p1697
F0.8888888888888888
tp1698
a(S'390'
p1699
F-0.12698412698412698
tp1700
a(S'732'
p1701
F0.4160251471689203
tp1702
a(S'753'
p1703
F-0.17786387594901124
tp1704
a(S'752'
p1705
F-0.274792022366689
tp1706
a(S'751'
p1707
F0.09731950940025792
tp1708
a(S'750'
p1709
F0.27777777777777746
tp1710
a(S'757'
p1711
F0.42647508447887933
tp1712
a(S'756'
p1713
F0.16812577745912846
tp1714
a(S'755'
p1715
F0.7821750141809626
tp1716
a(S'754'
p1717
F0.8458888522202896
tp1718
a(S'560'
p1719
F0.36391937004141933
tp1720
a(S'561'
p1721
F0.34698486633309167
tp1722
a(S'759'
p1723
F0.20029999335058526
tp1724
a(S'758'
p1725
F0.32776267337087256
tp1726
a(S'564'
p1727
F0.31927542840704937
tp1728
a(S'565'
p1729
F-0.14596855203028547
tp1730
a(S'566'
p1731
F0.4349596212803385
tp1732
a(S'701'
p1733
F0.34893782091119663
tp1734
a(S'739'
p1735
F-0.37955939687112983
tp1736
a(S'229'
p1737
F0.612862922306825
tp1738
a(S'507'
p1739
F-0.2851802953043484
tp1740
a(S'227'
p1741
F0.4805757673354055
tp1742
a(S'226'
p1743
F0.5236990706160861
tp1744
a(S'225'
p1745
F0.5875396787018113
tp1746
a(S'224'
p1747
F0.255459428667045
tp1748
a(S'223'
p1749
F0.10564630159476666
tp1750
a(S'222'
p1751
F0.4066293887590021
tp1752
a(S'221'
p1753
F0.16824476421634452
tp1754
a(S'220'
p1755
F0.6963106238227914
tp1756
a(S'114'
p1757
F0.34211645767939847
tp1758
a(S'391'
p1759
F0.2798438492485252
tp1760
a(S'726'
p1761
F0.5508226327552435
tp1762
a(S'727'
p1763
F0.3277616863116432
tp1764
a(S'724'
p1765
F0.5055454560951356
tp1766
a(S'725'
p1767
F0.6289709020331513
tp1768
a(S'568'
p1769
F0.11756657293355613
tp1770
a(S'723'
p1771
F0.14969623771302396
tp1772
a(S'720'
p1773
F0.0
tp1774
a(S'721'
p1775
F0.4047890877517067
tp1776
a(S'728'
p1777
F0.526685162382588
tp1778
a(S'729'
p1779
I0
tp1780
a(S'605'
p1781
F0.3869673320011577
tp1782
a(S'604'
p1783
F0.5655346358155582
tp1784
a(S'607'
p1785
F-0.1853461458285109
tp1786
a(S'606'
p1787
F0.20044016574896353
tp1788
a(S'601'
p1789
F0.28486554961696087
tp1790
a(S'600'
p1791
F0.5843717346055693
tp1792
a(S'603'
p1793
F0.2869671332326729
tp1794
a(S'602'
p1795
F0.6425529856759338
tp1796
a(S'159'
p1797
F0.24613726742660627
tp1798
a(S'158'
p1799
F0.25575016833843256
tp1800
a(S'112'
p1801
F-0.6963106238227914
tp1802
a(S'609'
p1803
F0.5434363322889697
tp1804
a(S'608'
p1805
F0.04570982668788768
tp1806
a(S'634'
p1807
F0.19900095687614502
tp1808
a(S'399'
p1809
F-0.04718488235640241
tp1810
a(S'635'
p1811
F0.1937292372609954
tp1812
a(S'749'
p1813
F0.26702092283257794
tp1814
a(S'398'
p1815
F0.34981954372776963
tp1816
a(S'48'
p1817
F0.2460335978611966
tp1818
a(S'49'
p1819
F0.13889571722928454
tp1820
a(S'46'
p1821
F0.35572775189802164
tp1822
a(S'47'
p1823
F-0.6666666666666667
tp1824
a(S'44'
p1825
F0.3821857485406363
tp1826
a(S'45'
p1827
F0.5003065316547246
tp1828
a(S'42'
p1829
F0.28415219856945856
tp1830
a(S'43'
p1831
F0.15493687148365945
tp1832
a(S'40'
p1833
F0.45320973183821156
tp1834
a(S'41'
p1835
F0.11201962335992363
tp1836
a(S'638'
p1837
F0.1535335503199891
tp1838
a(S'5'
p1839
F0.4240086837867668
tp1840
a(S'639'
p1841
F0.12262110315458571
tp1842
a(S'460'
p1843
F0.28353889924547426
tp1844
a(S'489'
p1845
F0.1905638687915816
tp1846
a(S'488'
p1847
F0.3680262969347893
tp1848
a(S'487'
p1849
F0.4341900516873358
tp1850
a(S'486'
p1851
F0.37685859279205464
tp1852
a(S'485'
p1853
F0.8660254037844387
tp1854
a(S'484'
p1855
F0.3444722322637967
tp1856
a(S'483'
p1857
F0.35963940651840726
tp1858
a(S'482'
p1859
F0.35555555555555557
tp1860
a(S'481'
p1861
F0.14270677371502183
tp1862
a(S'480'
p1863
F0.0
tp1864
a(S'509'
p1865
F0.6351073488299559
tp1866
a(S'472'
p1867
F0.36721173584313194
tp1868
a(S'473'
p1869
F0.3874659599627687
tp1870
a(S'470'
p1871
F0.0
tp1872
a(S'471'
p1873
F-0.42289279400031304
tp1874
a(S'476'
p1875
F0.4738411877626107
tp1876
a(S'477'
p1877
F0.1697336849583014
tp1878
a(S'474'
p1879
F0.14372508654954447
tp1880
a(S'475'
p1881
F-0.299572344757639
tp1882
a(S'478'
p1883
F0.27728793297566634
tp1884
a(S'479'
p1885
F0.5019167959864498
tp1886
a.